; Function Attrs: mustprogress uwtable
define noundef i32 @_ZN3zmq5req_t15recv_reply_pipeEPNS_5msg_tE(ptr noundef nonnull align 8 dereferenceable(1960) %this, ptr noundef %msg_) local_unnamed_addr #0 align 2 {
entry:
  %pipe = alloca ptr, align 8
  %_reply_pipe = getelementptr inbounds i8, ptr %this, i64 1936
  br label %while.body

while.body:                                       ; preds = %if.end, %entry
  store ptr null, ptr %pipe, align 8
  %call = call noundef i32 @_ZN3zmq8dealer_t8recvpipeEPNS_5msg_tEPPNS_6pipe_tE(ptr noundef nonnull align 8 dereferenceable(1929) %this, ptr noundef %msg_, ptr noundef nonnull %pipe)
  %cmp.not = icmp eq i32 %call, 0
  br i1 %cmp.not, label %if.end, label %return

if.end:                                           ; preds = %while.body
  %0 = load ptr, ptr %_reply_pipe, align 8
  %tobool.not = icmp eq ptr %0, null
  %1 = load ptr, ptr %pipe, align 8
  %cmp3 = icmp eq ptr %1, %0
  %or.cond = select i1 %tobool.not, i1 true, i1 %cmp3
  br i1 %or.cond, label %return, label %while.body, !llvm.loop !6

return:                                           ; preds = %if.end, %while.body
  ret i32 %call
}